; Function Attrs: mustprogress nofree norecurse nosync nounwind willreturn memory(argmem: read) uwtable
define hidden noundef i64 @_ZNK6evmone10EOF1Header18data_size_positionEv(ptr noundef nonnull readonly align 8 captures(none) dereferenceable(120) %0) local_unnamed_addr #0 align 2 {
  %2 = getelementptr inbounds nuw i8, ptr %0, i64 16
  %3 = getelementptr inbounds nuw i8, ptr %0, i64 24
  %4 = load ptr, ptr %3, align 8, !tbaa !3
  %5 = load ptr, ptr %2, align 8, !tbaa !9
  %6 = ptrtoint ptr %4 to i64
  %7 = ptrtoint ptr %5 to i64
  %8 = getelementptr inbounds nuw i8, ptr %0, i64 72
  %9 = getelementptr inbounds nuw i8, ptr %0, i64 80
  %10 = load ptr, ptr %9, align 8, !tbaa !10
  %11 = load ptr, ptr %8, align 8, !tbaa !13
  %12 = ptrtoint ptr %10 to i64
  %13 = ptrtoint ptr %11 to i64
  %14 = sub i64 %12, %13
  %.not = icmp eq ptr %10, %11
  %15 = add nuw nsw i64 %14, 3
  %16 = select i1 %.not, i64 0, i64 %15
  %17 = add i64 %6, 10
  %18 = sub i64 %17, %7
  %19 = add i64 %18, %16
  ret i64 %19
}